Archive member included to satisfy reference by file (symbol)

/home/xinhao/crosstools/riscv64-unknown-elf_rv64imafdc/bin/../lib/gcc/riscv64-unknown-elf/12.2.0/../../../../riscv64-unknown-elf/lib/libc.a(lib_a-errno.o)
                              syscall.o (__errno)
/home/xinhao/crosstools/riscv64-unknown-elf_rv64imafdc/bin/../lib/gcc/riscv64-unknown-elf/12.2.0/../../../../riscv64-unknown-elf/lib/libc.a(lib_a-impure.o)
                              main.o (_impure_ptr)
/home/xinhao/crosstools/riscv64-unknown-elf_rv64imafdc/bin/../lib/gcc/riscv64-unknown-elf/12.2.0/../../../../riscv64-unknown-elf/lib/libc.a(lib_a-puts.o)
                              main.o (puts)
/home/xinhao/crosstools/riscv64-unknown-elf_rv64imafdc/bin/../lib/gcc/riscv64-unknown-elf/12.2.0/../../../../riscv64-unknown-elf/lib/libc.a(lib_a-setvbuf.o)
                              main.o (setvbuf)
/home/xinhao/crosstools/riscv64-unknown-elf_rv64imafdc/bin/../lib/gcc/riscv64-unknown-elf/12.2.0/../../../../riscv64-unknown-elf/lib/libc.a(lib_a-strlen.o)
                              /home/xinhao/crosstools/riscv64-unknown-elf_rv64imafdc/bin/../lib/gcc/riscv64-unknown-elf/12.2.0/../../../../riscv64-unknown-elf/lib/libc.a(lib_a-puts.o) (strlen)
/home/xinhao/crosstools/riscv64-unknown-elf_rv64imafdc/bin/../lib/gcc/riscv64-unknown-elf/12.2.0/../../../../riscv64-unknown-elf/lib/libc.a(lib_a-fflush.o)
                              /home/xinhao/crosstools/riscv64-unknown-elf_rv64imafdc/bin/../lib/gcc/riscv64-unknown-elf/12.2.0/../../../../riscv64-unknown-elf/lib/libc.a(lib_a-setvbuf.o) (_fflush_r)
/home/xinhao/crosstools/riscv64-unknown-elf_rv64imafdc/bin/../lib/gcc/riscv64-unknown-elf/12.2.0/../../../../riscv64-unknown-elf/lib/libc.a(lib_a-findfp.o)
                              /home/xinhao/crosstools/riscv64-unknown-elf_rv64imafdc/bin/../lib/gcc/riscv64-unknown-elf/12.2.0/../../../../riscv64-unknown-elf/lib/libc.a(lib_a-puts.o) (__sinit)
/home/xinhao/crosstools/riscv64-unknown-elf_rv64imafdc/bin/../lib/gcc/riscv64-unknown-elf/12.2.0/../../../../riscv64-unknown-elf/lib/libc.a(lib_a-freer.o)
                              /home/xinhao/crosstools/riscv64-unknown-elf_rv64imafdc/bin/../lib/gcc/riscv64-unknown-elf/12.2.0/../../../../riscv64-unknown-elf/lib/libc.a(lib_a-setvbuf.o) (_free_r)
/home/xinhao/crosstools/riscv64-unknown-elf_rv64imafdc/bin/../lib/gcc/riscv64-unknown-elf/12.2.0/../../../../riscv64-unknown-elf/lib/libc.a(lib_a-fvwrite.o)
                              /home/xinhao/crosstools/riscv64-unknown-elf_rv64imafdc/bin/../lib/gcc/riscv64-unknown-elf/12.2.0/../../../../riscv64-unknown-elf/lib/libc.a(lib_a-puts.o) (__sfvwrite_r)
/home/xinhao/crosstools/riscv64-unknown-elf_rv64imafdc/bin/../lib/gcc/riscv64-unknown-elf/12.2.0/../../../../riscv64-unknown-elf/lib/libc.a(lib_a-fwalk.o)
                              /home/xinhao/crosstools/riscv64-unknown-elf_rv64imafdc/bin/../lib/gcc/riscv64-unknown-elf/12.2.0/../../../../riscv64-unknown-elf/lib/libc.a(lib_a-findfp.o) (_fwalk)
/home/xinhao/crosstools/riscv64-unknown-elf_rv64imafdc/bin/../lib/gcc/riscv64-unknown-elf/12.2.0/../../../../riscv64-unknown-elf/lib/libc.a(lib_a-makebuf.o)
                              /home/xinhao/crosstools/riscv64-unknown-elf_rv64imafdc/bin/../lib/gcc/riscv64-unknown-elf/12.2.0/../../../../riscv64-unknown-elf/lib/libc.a(lib_a-setvbuf.o) (__swhatbuf_r)
/home/xinhao/crosstools/riscv64-unknown-elf_rv64imafdc/bin/../lib/gcc/riscv64-unknown-elf/12.2.0/../../../../riscv64-unknown-elf/lib/libc.a(lib_a-malloc.o)
                              /home/xinhao/crosstools/riscv64-unknown-elf_rv64imafdc/bin/../lib/gcc/riscv64-unknown-elf/12.2.0/../../../../riscv64-unknown-elf/lib/libc.a(lib_a-setvbuf.o) (malloc)
/home/xinhao/crosstools/riscv64-unknown-elf_rv64imafdc/bin/../lib/gcc/riscv64-unknown-elf/12.2.0/../../../../riscv64-unknown-elf/lib/libc.a(lib_a-mallocr.o)
                              /home/xinhao/crosstools/riscv64-unknown-elf_rv64imafdc/bin/../lib/gcc/riscv64-unknown-elf/12.2.0/../../../../riscv64-unknown-elf/lib/libc.a(lib_a-findfp.o) (_malloc_r)
/home/xinhao/crosstools/riscv64-unknown-elf_rv64imafdc/bin/../lib/gcc/riscv64-unknown-elf/12.2.0/../../../../riscv64-unknown-elf/lib/libc.a(lib_a-memchr.o)
                              /home/xinhao/crosstools/riscv64-unknown-elf_rv64imafdc/bin/../lib/gcc/riscv64-unknown-elf/12.2.0/../../../../riscv64-unknown-elf/lib/libc.a(lib_a-fvwrite.o) (memchr)
/home/xinhao/crosstools/riscv64-unknown-elf_rv64imafdc/bin/../lib/gcc/riscv64-unknown-elf/12.2.0/../../../../riscv64-unknown-elf/lib/libc.a(lib_a-memcpy.o)
                              /home/xinhao/crosstools/riscv64-unknown-elf_rv64imafdc/bin/../lib/gcc/riscv64-unknown-elf/12.2.0/../../../../riscv64-unknown-elf/lib/libc.a(lib_a-fvwrite.o) (memcpy)
/home/xinhao/crosstools/riscv64-unknown-elf_rv64imafdc/bin/../lib/gcc/riscv64-unknown-elf/12.2.0/../../../../riscv64-unknown-elf/lib/libc.a(lib_a-memmove-stub.o)
                              /home/xinhao/crosstools/riscv64-unknown-elf_rv64imafdc/bin/../lib/gcc/riscv64-unknown-elf/12.2.0/../../../../riscv64-unknown-elf/lib/libc.a(lib_a-fvwrite.o) (memmove)
/home/xinhao/crosstools/riscv64-unknown-elf_rv64imafdc/bin/../lib/gcc/riscv64-unknown-elf/12.2.0/../../../../riscv64-unknown-elf/lib/libc.a(lib_a-memset.o)
                              /home/xinhao/crosstools/riscv64-unknown-elf_rv64imafdc/bin/../lib/gcc/riscv64-unknown-elf/12.2.0/../../../../riscv64-unknown-elf/lib/libc.a(lib_a-findfp.o) (memset)
/home/xinhao/crosstools/riscv64-unknown-elf_rv64imafdc/bin/../lib/gcc/riscv64-unknown-elf/12.2.0/../../../../riscv64-unknown-elf/lib/libc.a(lib_a-mlock.o)
                              /home/xinhao/crosstools/riscv64-unknown-elf_rv64imafdc/bin/../lib/gcc/riscv64-unknown-elf/12.2.0/../../../../riscv64-unknown-elf/lib/libc.a(lib_a-freer.o) (__malloc_lock)
/home/xinhao/crosstools/riscv64-unknown-elf_rv64imafdc/bin/../lib/gcc/riscv64-unknown-elf/12.2.0/../../../../riscv64-unknown-elf/lib/libc.a(lib_a-reallocr.o)
                              /home/xinhao/crosstools/riscv64-unknown-elf_rv64imafdc/bin/../lib/gcc/riscv64-unknown-elf/12.2.0/../../../../riscv64-unknown-elf/lib/libc.a(lib_a-fvwrite.o) (_realloc_r)
/home/xinhao/crosstools/riscv64-unknown-elf_rv64imafdc/bin/../lib/gcc/riscv64-unknown-elf/12.2.0/../../../../riscv64-unknown-elf/lib/libc.a(lib_a-sbrkr.o)
                              /home/xinhao/crosstools/riscv64-unknown-elf_rv64imafdc/bin/../lib/gcc/riscv64-unknown-elf/12.2.0/../../../../riscv64-unknown-elf/lib/libc.a(lib_a-freer.o) (_sbrk_r)
/home/xinhao/crosstools/riscv64-unknown-elf_rv64imafdc/bin/../lib/gcc/riscv64-unknown-elf/12.2.0/../../../../riscv64-unknown-elf/lib/libc.a(lib_a-stdio.o)
                              /home/xinhao/crosstools/riscv64-unknown-elf_rv64imafdc/bin/../lib/gcc/riscv64-unknown-elf/12.2.0/../../../../riscv64-unknown-elf/lib/libc.a(lib_a-findfp.o) (__sread)
/home/xinhao/crosstools/riscv64-unknown-elf_rv64imafdc/bin/../lib/gcc/riscv64-unknown-elf/12.2.0/../../../../riscv64-unknown-elf/lib/libc.a(lib_a-writer.o)
                              /home/xinhao/crosstools/riscv64-unknown-elf_rv64imafdc/bin/../lib/gcc/riscv64-unknown-elf/12.2.0/../../../../riscv64-unknown-elf/lib/libc.a(lib_a-stdio.o) (_write_r)
/home/xinhao/crosstools/riscv64-unknown-elf_rv64imafdc/bin/../lib/gcc/riscv64-unknown-elf/12.2.0/../../../../riscv64-unknown-elf/lib/libc.a(lib_a-wsetup.o)
                              /home/xinhao/crosstools/riscv64-unknown-elf_rv64imafdc/bin/../lib/gcc/riscv64-unknown-elf/12.2.0/../../../../riscv64-unknown-elf/lib/libc.a(lib_a-fvwrite.o) (__swsetup_r)
/home/xinhao/crosstools/riscv64-unknown-elf_rv64imafdc/bin/../lib/gcc/riscv64-unknown-elf/12.2.0/../../../../riscv64-unknown-elf/lib/libc.a(lib_a-closer.o)
                              /home/xinhao/crosstools/riscv64-unknown-elf_rv64imafdc/bin/../lib/gcc/riscv64-unknown-elf/12.2.0/../../../../riscv64-unknown-elf/lib/libc.a(lib_a-stdio.o) (_close_r)
/home/xinhao/crosstools/riscv64-unknown-elf_rv64imafdc/bin/../lib/gcc/riscv64-unknown-elf/12.2.0/../../../../riscv64-unknown-elf/lib/libc.a(lib_a-fclose.o)
                              /home/xinhao/crosstools/riscv64-unknown-elf_rv64imafdc/bin/../lib/gcc/riscv64-unknown-elf/12.2.0/../../../../riscv64-unknown-elf/lib/libc.a(lib_a-findfp.o) (_fclose_r)
/home/xinhao/crosstools/riscv64-unknown-elf_rv64imafdc/bin/../lib/gcc/riscv64-unknown-elf/12.2.0/../../../../riscv64-unknown-elf/lib/libc.a(lib_a-fstatr.o)
                              /home/xinhao/crosstools/riscv64-unknown-elf_rv64imafdc/bin/../lib/gcc/riscv64-unknown-elf/12.2.0/../../../../riscv64-unknown-elf/lib/libc.a(lib_a-makebuf.o) (_fstat_r)
/home/xinhao/crosstools/riscv64-unknown-elf_rv64imafdc/bin/../lib/gcc/riscv64-unknown-elf/12.2.0/../../../../riscv64-unknown-elf/lib/libc.a(lib_a-isattyr.o)
                              /home/xinhao/crosstools/riscv64-unknown-elf_rv64imafdc/bin/../lib/gcc/riscv64-unknown-elf/12.2.0/../../../../riscv64-unknown-elf/lib/libc.a(lib_a-makebuf.o) (_isatty_r)
/home/xinhao/crosstools/riscv64-unknown-elf_rv64imafdc/bin/../lib/gcc/riscv64-unknown-elf/12.2.0/../../../../riscv64-unknown-elf/lib/libc.a(lib_a-lseekr.o)
                              /home/xinhao/crosstools/riscv64-unknown-elf_rv64imafdc/bin/../lib/gcc/riscv64-unknown-elf/12.2.0/../../../../riscv64-unknown-elf/lib/libc.a(lib_a-stdio.o) (_lseek_r)
/home/xinhao/crosstools/riscv64-unknown-elf_rv64imafdc/bin/../lib/gcc/riscv64-unknown-elf/12.2.0/../../../../riscv64-unknown-elf/lib/libc.a(lib_a-readr.o)
                              /home/xinhao/crosstools/riscv64-unknown-elf_rv64imafdc/bin/../lib/gcc/riscv64-unknown-elf/12.2.0/../../../../riscv64-unknown-elf/lib/libc.a(lib_a-stdio.o) (_read_r)
/home/xinhao/crosstools/riscv64-unknown-elf_rv64imafdc/bin/../lib/gcc/riscv64-unknown-elf/12.2.0/../../../../riscv64-unknown-elf/lib/libc.a(lib_a-reent.o)
                              /home/xinhao/crosstools/riscv64-unknown-elf_rv64imafdc/bin/../lib/gcc/riscv64-unknown-elf/12.2.0/../../../../riscv64-unknown-elf/lib/libc.a(lib_a-sbrkr.o) (errno)
/home/xinhao/crosstools/riscv64-unknown-elf_rv64imafdc/bin/../lib/gcc/riscv64-unknown-elf/12.2.0/../../../../riscv64-unknown-elf/lib/libnosys.a(sbrk.o)
                              /home/xinhao/crosstools/riscv64-unknown-elf_rv64imafdc/bin/../lib/gcc/riscv64-unknown-elf/12.2.0/../../../../riscv64-unknown-elf/lib/libc.a(lib_a-sbrkr.o) (_sbrk)

Memory Configuration

Name             Origin             Length             Attributes
debug_ctrl       0x0000000000000000 0x0000000000001000 xrw
ROM              0x0000000000010000 0x0000000000080000 axrl
clint_ctrl       0x0000000002000000 0x0000000000010000 rw
plic_ctrl        0x000000000c000000 0x0000000000040000 rw
MMIO             0x0000000060000000 0x0000000000080000 xrw
RAM              0x0000000080000000 0x0000000000040000 xrw
PSRAM            0x0000000080080000 0x0000000002000000 xrw
*default*        0x0000000000000000 0xffffffffffffffff

Linker script and memory map

                0x0000000080000000                RAM_BASE = ORIGIN (RAM)
                0x0000000000040000                RAM_SIZE = LENGTH (RAM)
                0x0000000080000000                . = RAM_BASE
                0x0000000000001000                __stack_size = DEFINED (__stack_size)?__stack_size:0x1000

.stack          0x0000000080000000     0x1000
                0x0000000080000000                . = ALIGN (0x10)
                0x0000000080001000                . = (. + __stack_size)
 *fill*         0x0000000080000000     0x1000 
                0x0000000080001000                PROVIDE (_stack_top = .)
                [!provide]                        PROVIDE (__freertos_irq_stack_top = .)

.init           0x0000000080001000      0x172
                0x0000000080001000                _text = .
 *(SORT_NONE(.init))
 .init          0x0000000080001000      0x172 start.o
                0x0000000080001000                _start

.text           0x0000000080001200     0x2bbc
 *(.text.unlikely .text.unlikely.*)
 *(.text.startup .text.startup.*)
 .text.startup  0x0000000080001200       0x62 main.o
                0x0000000080001200                main
 *(.text .text.*)
 .text          0x0000000080001262       0x78 cp.o
                0x0000000080001262                cp
                0x0000000080001298                cp1
 .text          0x00000000800012da       0x1c portASM.o
 .text.risc_v_exception_handler
                0x00000000800012f6       0x9e portASM.o
                0x00000000800012f6                risc_v_exception_handler
 .text.risc_v_interrupt_handler
                0x0000000080001394       0x9c portASM.o
                0x0000000080001394                risc_v_interrupt_handler
 .text.risc_v_msoftware_interrupt_handler
                0x0000000080001430       0x9c portASM.o
                0x0000000080001430                risc_v_msoftware_interrupt_handler
 .text.risc_v_mtimer_interrupt_handler
                0x00000000800014cc       0x9c portASM.o
                0x00000000800014cc                risc_v_mtimer_interrupt_handler
 .text.risc_v_mexternal_interrupt_handler
                0x0000000080001568       0x9c portASM.o
                0x0000000080001568                risc_v_mexternal_interrupt_handler
 .text          0x0000000080001604        0x0 start.o
 *fill*         0x0000000080001604       0xfc 
 .text          0x0000000080001700      0x100 vector.o
                0x0000000080001700                vector_table
 .text          0x0000000080001800       0x1a delay.o
                0x0000000080001800                delayus
 .text          0x000000008000181a       0x92 dma.o
                0x000000008000181a                dma_enable
                0x0000000080001826                dma_init
                0x000000008000186c                dma_start_weight
                0x0000000080001886                dma_start_feature
 .text          0x00000000800018ac      0x104 main.o
                0x00000000800018ac                __io_putchar
                0x00000000800018ca                _write
                0x00000000800018f8                user_interrupt_handler
                0x0000000080001974                risc_v_application_exception_handler
                0x0000000080001988                handle_trap
                0x000000008000199c                risc_v_application_interrupt_handler
 .text          0x00000000800019b0       0x38 plic.o
                0x00000000800019b0                plic_init
                0x00000000800019d8                plic_claim
                0x00000000800019e0                plic_complete
 .text          0x00000000800019e8       0x82 syscall.o
                0x00000000800019e8                _isatty
                0x0000000080001a06                _close
                0x0000000080001a24                _lseek
                0x0000000080001a38                _fstat
                0x0000000080001a5a                _read
                0x0000000080001a62                _getpid
                0x0000000080001a66                _kill
 .text          0x0000000080001a6a       0x38 tick.o
                0x0000000080001a6a                rt_hw_tick_init
                0x0000000080001a9a                rt_hw_soft_init
 .text          0x0000000080001aa2        0x0 /home/xinhao/crosstools/riscv64-unknown-elf_rv64imafdc/bin/../lib/gcc/riscv64-unknown-elf/12.2.0/../../../../riscv64-unknown-elf/lib/libc.a(lib_a-errno.o)
 .text.__errno  0x0000000080001aa2        0xa /home/xinhao/crosstools/riscv64-unknown-elf_rv64imafdc/bin/../lib/gcc/riscv64-unknown-elf/12.2.0/../../../../riscv64-unknown-elf/lib/libc.a(lib_a-errno.o)
                0x0000000080001aa2                __errno
 .text          0x0000000080001aac        0x0 /home/xinhao/crosstools/riscv64-unknown-elf_rv64imafdc/bin/../lib/gcc/riscv64-unknown-elf/12.2.0/../../../../riscv64-unknown-elf/lib/libc.a(lib_a-impure.o)
 .text          0x0000000080001aac        0x0 /home/xinhao/crosstools/riscv64-unknown-elf_rv64imafdc/bin/../lib/gcc/riscv64-unknown-elf/12.2.0/../../../../riscv64-unknown-elf/lib/libc.a(lib_a-puts.o)
 .text._puts_r  0x0000000080001aac       0x82 /home/xinhao/crosstools/riscv64-unknown-elf_rv64imafdc/bin/../lib/gcc/riscv64-unknown-elf/12.2.0/../../../../riscv64-unknown-elf/lib/libc.a(lib_a-puts.o)
                0x0000000080001aac                _puts_r
 .text.puts     0x0000000080001b2e        0xc /home/xinhao/crosstools/riscv64-unknown-elf_rv64imafdc/bin/../lib/gcc/riscv64-unknown-elf/12.2.0/../../../../riscv64-unknown-elf/lib/libc.a(lib_a-puts.o)
                0x0000000080001b2e                puts
 .text          0x0000000080001b3a        0x0 /home/xinhao/crosstools/riscv64-unknown-elf_rv64imafdc/bin/../lib/gcc/riscv64-unknown-elf/12.2.0/../../../../riscv64-unknown-elf/lib/libc.a(lib_a-setvbuf.o)
 .text.setvbuf  0x0000000080001b3a      0x18e /home/xinhao/crosstools/riscv64-unknown-elf_rv64imafdc/bin/../lib/gcc/riscv64-unknown-elf/12.2.0/../../../../riscv64-unknown-elf/lib/libc.a(lib_a-setvbuf.o)
                0x0000000080001b3a                setvbuf
 .text          0x0000000080001cc8        0x0 /home/xinhao/crosstools/riscv64-unknown-elf_rv64imafdc/bin/../lib/gcc/riscv64-unknown-elf/12.2.0/../../../../riscv64-unknown-elf/lib/libc.a(lib_a-strlen.o)
 .text.strlen   0x0000000080001cc8       0x94 /home/xinhao/crosstools/riscv64-unknown-elf_rv64imafdc/bin/../lib/gcc/riscv64-unknown-elf/12.2.0/../../../../riscv64-unknown-elf/lib/libc.a(lib_a-strlen.o)
                0x0000000080001cc8                strlen
 .text          0x0000000080001d5c        0x0 /home/xinhao/crosstools/riscv64-unknown-elf_rv64imafdc/bin/../lib/gcc/riscv64-unknown-elf/12.2.0/../../../../riscv64-unknown-elf/lib/libc.a(lib_a-fflush.o)
 .text.__sflush_r
                0x0000000080001d5c      0x182 /home/xinhao/crosstools/riscv64-unknown-elf_rv64imafdc/bin/../lib/gcc/riscv64-unknown-elf/12.2.0/../../../../riscv64-unknown-elf/lib/libc.a(lib_a-fflush.o)
                0x0000000080001d5c                __sflush_r
 .text._fflush_r
                0x0000000080001ede       0x36 /home/xinhao/crosstools/riscv64-unknown-elf_rv64imafdc/bin/../lib/gcc/riscv64-unknown-elf/12.2.0/../../../../riscv64-unknown-elf/lib/libc.a(lib_a-fflush.o)
                0x0000000080001ede                _fflush_r
 .text.fflush   0x0000000080001f14       0x52 /home/xinhao/crosstools/riscv64-unknown-elf_rv64imafdc/bin/../lib/gcc/riscv64-unknown-elf/12.2.0/../../../../riscv64-unknown-elf/lib/libc.a(lib_a-fflush.o)
                0x0000000080001f14                fflush
 .text          0x0000000080001f66        0x0 /home/xinhao/crosstools/riscv64-unknown-elf_rv64imafdc/bin/../lib/gcc/riscv64-unknown-elf/12.2.0/../../../../riscv64-unknown-elf/lib/libc.a(lib_a-findfp.o)
 .text.__fp_lock
                0x0000000080001f66        0x4 /home/xinhao/crosstools/riscv64-unknown-elf_rv64imafdc/bin/../lib/gcc/riscv64-unknown-elf/12.2.0/../../../../riscv64-unknown-elf/lib/libc.a(lib_a-findfp.o)
 .text._cleanup_r
                0x0000000080001f6a        0xc /home/xinhao/crosstools/riscv64-unknown-elf_rv64imafdc/bin/../lib/gcc/riscv64-unknown-elf/12.2.0/../../../../riscv64-unknown-elf/lib/libc.a(lib_a-findfp.o)
                0x0000000080001f6a                _cleanup_r
 .text.__fp_unlock
                0x0000000080001f76        0x4 /home/xinhao/crosstools/riscv64-unknown-elf_rv64imafdc/bin/../lib/gcc/riscv64-unknown-elf/12.2.0/../../../../riscv64-unknown-elf/lib/libc.a(lib_a-findfp.o)
 .text.__sinit.part.0
                0x0000000080001f7a      0x128 /home/xinhao/crosstools/riscv64-unknown-elf_rv64imafdc/bin/../lib/gcc/riscv64-unknown-elf/12.2.0/../../../../riscv64-unknown-elf/lib/libc.a(lib_a-findfp.o)
 .text.__sfmoreglue
                0x00000000800020a2       0x48 /home/xinhao/crosstools/riscv64-unknown-elf_rv64imafdc/bin/../lib/gcc/riscv64-unknown-elf/12.2.0/../../../../riscv64-unknown-elf/lib/libc.a(lib_a-findfp.o)
                0x00000000800020a2                __sfmoreglue
 .text.__sfp    0x00000000800020ea       0xd0 /home/xinhao/crosstools/riscv64-unknown-elf_rv64imafdc/bin/../lib/gcc/riscv64-unknown-elf/12.2.0/../../../../riscv64-unknown-elf/lib/libc.a(lib_a-findfp.o)
                0x00000000800020ea                __sfp
 .text._cleanup
                0x00000000800021ba       0x10 /home/xinhao/crosstools/riscv64-unknown-elf_rv64imafdc/bin/../lib/gcc/riscv64-unknown-elf/12.2.0/../../../../riscv64-unknown-elf/lib/libc.a(lib_a-findfp.o)
                0x00000000800021ba                _cleanup
 .text.__sinit  0x00000000800021ca        0x8 /home/xinhao/crosstools/riscv64-unknown-elf_rv64imafdc/bin/../lib/gcc/riscv64-unknown-elf/12.2.0/../../../../riscv64-unknown-elf/lib/libc.a(lib_a-findfp.o)
                0x00000000800021ca                __sinit
 .text.__sfp_lock_acquire
                0x00000000800021d2        0x2 /home/xinhao/crosstools/riscv64-unknown-elf_rv64imafdc/bin/../lib/gcc/riscv64-unknown-elf/12.2.0/../../../../riscv64-unknown-elf/lib/libc.a(lib_a-findfp.o)
                0x00000000800021d2                __sfp_lock_acquire
 .text.__sfp_lock_release
                0x00000000800021d4        0x2 /home/xinhao/crosstools/riscv64-unknown-elf_rv64imafdc/bin/../lib/gcc/riscv64-unknown-elf/12.2.0/../../../../riscv64-unknown-elf/lib/libc.a(lib_a-findfp.o)
                0x00000000800021d4                __sfp_lock_release
 .text.__sinit_lock_acquire
                0x00000000800021d6        0x2 /home/xinhao/crosstools/riscv64-unknown-elf_rv64imafdc/bin/../lib/gcc/riscv64-unknown-elf/12.2.0/../../../../riscv64-unknown-elf/lib/libc.a(lib_a-findfp.o)
                0x00000000800021d6                __sinit_lock_acquire
 .text.__sinit_lock_release
                0x00000000800021d8        0x2 /home/xinhao/crosstools/riscv64-unknown-elf_rv64imafdc/bin/../lib/gcc/riscv64-unknown-elf/12.2.0/../../../../riscv64-unknown-elf/lib/libc.a(lib_a-findfp.o)
                0x00000000800021d8                __sinit_lock_release
 .text.__fp_lock_all
                0x00000000800021da       0x12 /home/xinhao/crosstools/riscv64-unknown-elf_rv64imafdc/bin/../lib/gcc/riscv64-unknown-elf/12.2.0/../../../../riscv64-unknown-elf/lib/libc.a(lib_a-findfp.o)
                0x00000000800021da                __fp_lock_all
 .text.__fp_unlock_all
                0x00000000800021ec       0x12 /home/xinhao/crosstools/riscv64-unknown-elf_rv64imafdc/bin/../lib/gcc/riscv64-unknown-elf/12.2.0/../../../../riscv64-unknown-elf/lib/libc.a(lib_a-findfp.o)
                0x00000000800021ec                __fp_unlock_all
 .text          0x00000000800021fe        0x0 /home/xinhao/crosstools/riscv64-unknown-elf_rv64imafdc/bin/../lib/gcc/riscv64-unknown-elf/12.2.0/../../../../riscv64-unknown-elf/lib/libc.a(lib_a-freer.o)
 .text._malloc_trim_r
                0x00000000800021fe       0xd8 /home/xinhao/crosstools/riscv64-unknown-elf_rv64imafdc/bin/../lib/gcc/riscv64-unknown-elf/12.2.0/../../../../riscv64-unknown-elf/lib/libc.a(lib_a-freer.o)
                0x00000000800021fe                _malloc_trim_r
 .text._free_r  0x00000000800022d6      0x252 /home/xinhao/crosstools/riscv64-unknown-elf_rv64imafdc/bin/../lib/gcc/riscv64-unknown-elf/12.2.0/../../../../riscv64-unknown-elf/lib/libc.a(lib_a-freer.o)
                0x00000000800022d6                _free_r
 .text          0x0000000080002528        0x0 /home/xinhao/crosstools/riscv64-unknown-elf_rv64imafdc/bin/../lib/gcc/riscv64-unknown-elf/12.2.0/../../../../riscv64-unknown-elf/lib/libc.a(lib_a-fvwrite.o)
 .text.__sfvwrite_r
                0x0000000080002528      0x32e /home/xinhao/crosstools/riscv64-unknown-elf_rv64imafdc/bin/../lib/gcc/riscv64-unknown-elf/12.2.0/../../../../riscv64-unknown-elf/lib/libc.a(lib_a-fvwrite.o)
                0x0000000080002528                __sfvwrite_r
 .text          0x0000000080002856        0x0 /home/xinhao/crosstools/riscv64-unknown-elf_rv64imafdc/bin/../lib/gcc/riscv64-unknown-elf/12.2.0/../../../../riscv64-unknown-elf/lib/libc.a(lib_a-fwalk.o)
 .text._fwalk   0x0000000080002856       0x7c /home/xinhao/crosstools/riscv64-unknown-elf_rv64imafdc/bin/../lib/gcc/riscv64-unknown-elf/12.2.0/../../../../riscv64-unknown-elf/lib/libc.a(lib_a-fwalk.o)
                0x0000000080002856                _fwalk
 .text._fwalk_reent
                0x00000000800028d2       0x84 /home/xinhao/crosstools/riscv64-unknown-elf_rv64imafdc/bin/../lib/gcc/riscv64-unknown-elf/12.2.0/../../../../riscv64-unknown-elf/lib/libc.a(lib_a-fwalk.o)
                0x00000000800028d2                _fwalk_reent
 .text          0x0000000080002956        0x0 /home/xinhao/crosstools/riscv64-unknown-elf_rv64imafdc/bin/../lib/gcc/riscv64-unknown-elf/12.2.0/../../../../riscv64-unknown-elf/lib/libc.a(lib_a-makebuf.o)
 .text.__smakebuf_r
                0x0000000080002956      0x116 /home/xinhao/crosstools/riscv64-unknown-elf_rv64imafdc/bin/../lib/gcc/riscv64-unknown-elf/12.2.0/../../../../riscv64-unknown-elf/lib/libc.a(lib_a-makebuf.o)
                0x0000000080002956                __smakebuf_r
 .text.__swhatbuf_r
                0x0000000080002a6c       0x88 /home/xinhao/crosstools/riscv64-unknown-elf_rv64imafdc/bin/../lib/gcc/riscv64-unknown-elf/12.2.0/../../../../riscv64-unknown-elf/lib/libc.a(lib_a-makebuf.o)
                0x0000000080002a6c                __swhatbuf_r
 .text          0x0000000080002af4        0x0 /home/xinhao/crosstools/riscv64-unknown-elf_rv64imafdc/bin/../lib/gcc/riscv64-unknown-elf/12.2.0/../../../../riscv64-unknown-elf/lib/libc.a(lib_a-malloc.o)
 .text.malloc   0x0000000080002af4        0xc /home/xinhao/crosstools/riscv64-unknown-elf_rv64imafdc/bin/../lib/gcc/riscv64-unknown-elf/12.2.0/../../../../riscv64-unknown-elf/lib/libc.a(lib_a-malloc.o)
                0x0000000080002af4                malloc
 .text.free     0x0000000080002b00        0xe /home/xinhao/crosstools/riscv64-unknown-elf_rv64imafdc/bin/../lib/gcc/riscv64-unknown-elf/12.2.0/../../../../riscv64-unknown-elf/lib/libc.a(lib_a-malloc.o)
                0x0000000080002b00                free
 .text          0x0000000080002b0e        0x0 /home/xinhao/crosstools/riscv64-unknown-elf_rv64imafdc/bin/../lib/gcc/riscv64-unknown-elf/12.2.0/../../../../riscv64-unknown-elf/lib/libc.a(lib_a-mallocr.o)
 .text._malloc_r
                0x0000000080002b0e      0x606 /home/xinhao/crosstools/riscv64-unknown-elf_rv64imafdc/bin/../lib/gcc/riscv64-unknown-elf/12.2.0/../../../../riscv64-unknown-elf/lib/libc.a(lib_a-mallocr.o)
                0x0000000080002b0e                _malloc_r
 .text          0x0000000080003114        0x0 /home/xinhao/crosstools/riscv64-unknown-elf_rv64imafdc/bin/../lib/gcc/riscv64-unknown-elf/12.2.0/../../../../riscv64-unknown-elf/lib/libc.a(lib_a-memchr.o)
 .text.memchr   0x0000000080003114       0x96 /home/xinhao/crosstools/riscv64-unknown-elf_rv64imafdc/bin/../lib/gcc/riscv64-unknown-elf/12.2.0/../../../../riscv64-unknown-elf/lib/libc.a(lib_a-memchr.o)
                0x0000000080003114                memchr
 .text          0x00000000800031aa        0x0 /home/xinhao/crosstools/riscv64-unknown-elf_rv64imafdc/bin/../lib/gcc/riscv64-unknown-elf/12.2.0/../../../../riscv64-unknown-elf/lib/libc.a(lib_a-memcpy.o)
 .text.memcpy   0x00000000800031aa      0x146 /home/xinhao/crosstools/riscv64-unknown-elf_rv64imafdc/bin/../lib/gcc/riscv64-unknown-elf/12.2.0/../../../../riscv64-unknown-elf/lib/libc.a(lib_a-memcpy.o)
                0x00000000800031aa                memcpy
 .text          0x00000000800032f0        0x0 /home/xinhao/crosstools/riscv64-unknown-elf_rv64imafdc/bin/../lib/gcc/riscv64-unknown-elf/12.2.0/../../../../riscv64-unknown-elf/lib/libc.a(lib_a-memmove-stub.o)
 .text.memmove  0x00000000800032f0       0xd8 /home/xinhao/crosstools/riscv64-unknown-elf_rv64imafdc/bin/../lib/gcc/riscv64-unknown-elf/12.2.0/../../../../riscv64-unknown-elf/lib/libc.a(lib_a-memmove-stub.o)
                0x00000000800032f0                memmove
 .text          0x00000000800033c8       0xaa /home/xinhao/crosstools/riscv64-unknown-elf_rv64imafdc/bin/../lib/gcc/riscv64-unknown-elf/12.2.0/../../../../riscv64-unknown-elf/lib/libc.a(lib_a-memset.o)
                0x00000000800033c8                memset
 .text          0x0000000080003472        0x0 /home/xinhao/crosstools/riscv64-unknown-elf_rv64imafdc/bin/../lib/gcc/riscv64-unknown-elf/12.2.0/../../../../riscv64-unknown-elf/lib/libc.a(lib_a-mlock.o)
 .text.__malloc_lock
                0x0000000080003472        0x2 /home/xinhao/crosstools/riscv64-unknown-elf_rv64imafdc/bin/../lib/gcc/riscv64-unknown-elf/12.2.0/../../../../riscv64-unknown-elf/lib/libc.a(lib_a-mlock.o)
                0x0000000080003472                __malloc_lock
 .text.__malloc_unlock
                0x0000000080003474        0x2 /home/xinhao/crosstools/riscv64-unknown-elf_rv64imafdc/bin/../lib/gcc/riscv64-unknown-elf/12.2.0/../../../../riscv64-unknown-elf/lib/libc.a(lib_a-mlock.o)
                0x0000000080003474                __malloc_unlock
 .text          0x0000000080003476        0x0 /home/xinhao/crosstools/riscv64-unknown-elf_rv64imafdc/bin/../lib/gcc/riscv64-unknown-elf/12.2.0/../../../../riscv64-unknown-elf/lib/libc.a(lib_a-reallocr.o)
 .text._realloc_r
                0x0000000080003476      0x3ee /home/xinhao/crosstools/riscv64-unknown-elf_rv64imafdc/bin/../lib/gcc/riscv64-unknown-elf/12.2.0/../../../../riscv64-unknown-elf/lib/libc.a(lib_a-reallocr.o)
                0x0000000080003476                _realloc_r
 .text          0x0000000080003864        0x0 /home/xinhao/crosstools/riscv64-unknown-elf_rv64imafdc/bin/../lib/gcc/riscv64-unknown-elf/12.2.0/../../../../riscv64-unknown-elf/lib/libc.a(lib_a-sbrkr.o)
 .text._sbrk_r  0x0000000080003864       0x38 /home/xinhao/crosstools/riscv64-unknown-elf_rv64imafdc/bin/../lib/gcc/riscv64-unknown-elf/12.2.0/../../../../riscv64-unknown-elf/lib/libc.a(lib_a-sbrkr.o)
                0x0000000080003864                _sbrk_r
 .text          0x000000008000389c        0x0 /home/xinhao/crosstools/riscv64-unknown-elf_rv64imafdc/bin/../lib/gcc/riscv64-unknown-elf/12.2.0/../../../../riscv64-unknown-elf/lib/libc.a(lib_a-stdio.o)
 .text.__sread  0x000000008000389c       0x38 /home/xinhao/crosstools/riscv64-unknown-elf_rv64imafdc/bin/../lib/gcc/riscv64-unknown-elf/12.2.0/../../../../riscv64-unknown-elf/lib/libc.a(lib_a-stdio.o)
                0x000000008000389c                __sread
 .text.__seofread
                0x00000000800038d4        0x4 /home/xinhao/crosstools/riscv64-unknown-elf_rv64imafdc/bin/../lib/gcc/riscv64-unknown-elf/12.2.0/../../../../riscv64-unknown-elf/lib/libc.a(lib_a-stdio.o)
                0x00000000800038d4                __seofread
 .text.__swrite
                0x00000000800038d8       0x52 /home/xinhao/crosstools/riscv64-unknown-elf_rv64imafdc/bin/../lib/gcc/riscv64-unknown-elf/12.2.0/../../../../riscv64-unknown-elf/lib/libc.a(lib_a-stdio.o)
                0x00000000800038d8                __swrite
 .text.__sseek  0x000000008000392a       0x52 /home/xinhao/crosstools/riscv64-unknown-elf_rv64imafdc/bin/../lib/gcc/riscv64-unknown-elf/12.2.0/../../../../riscv64-unknown-elf/lib/libc.a(lib_a-stdio.o)
                0x000000008000392a                __sseek
 .text.__sclose
                0x000000008000397c        0x6 /home/xinhao/crosstools/riscv64-unknown-elf_rv64imafdc/bin/../lib/gcc/riscv64-unknown-elf/12.2.0/../../../../riscv64-unknown-elf/lib/libc.a(lib_a-stdio.o)
                0x000000008000397c                __sclose
 .text          0x0000000080003982        0x0 /home/xinhao/crosstools/riscv64-unknown-elf_rv64imafdc/bin/../lib/gcc/riscv64-unknown-elf/12.2.0/../../../../riscv64-unknown-elf/lib/libc.a(lib_a-writer.o)
 .text._write_r
                0x0000000080003982       0x3e /home/xinhao/crosstools/riscv64-unknown-elf_rv64imafdc/bin/../lib/gcc/riscv64-unknown-elf/12.2.0/../../../../riscv64-unknown-elf/lib/libc.a(lib_a-writer.o)
                0x0000000080003982                _write_r
 .text          0x00000000800039c0        0x0 /home/xinhao/crosstools/riscv64-unknown-elf_rv64imafdc/bin/../lib/gcc/riscv64-unknown-elf/12.2.0/../../../../riscv64-unknown-elf/lib/libc.a(lib_a-wsetup.o)
 .text.__swsetup_r
                0x00000000800039c0       0xe0 /home/xinhao/crosstools/riscv64-unknown-elf_rv64imafdc/bin/../lib/gcc/riscv64-unknown-elf/12.2.0/../../../../riscv64-unknown-elf/lib/libc.a(lib_a-wsetup.o)
                0x00000000800039c0                __swsetup_r
 .text          0x0000000080003aa0        0x0 /home/xinhao/crosstools/riscv64-unknown-elf_rv64imafdc/bin/../lib/gcc/riscv64-unknown-elf/12.2.0/../../../../riscv64-unknown-elf/lib/libc.a(lib_a-closer.o)
 .text._close_r
                0x0000000080003aa0       0x38 /home/xinhao/crosstools/riscv64-unknown-elf_rv64imafdc/bin/../lib/gcc/riscv64-unknown-elf/12.2.0/../../../../riscv64-unknown-elf/lib/libc.a(lib_a-closer.o)
                0x0000000080003aa0                _close_r
 .text          0x0000000080003ad8        0x0 /home/xinhao/crosstools/riscv64-unknown-elf_rv64imafdc/bin/../lib/gcc/riscv64-unknown-elf/12.2.0/../../../../riscv64-unknown-elf/lib/libc.a(lib_a-fclose.o)
 .text._fclose_r
                0x0000000080003ad8       0xae /home/xinhao/crosstools/riscv64-unknown-elf_rv64imafdc/bin/../lib/gcc/riscv64-unknown-elf/12.2.0/../../../../riscv64-unknown-elf/lib/libc.a(lib_a-fclose.o)
                0x0000000080003ad8                _fclose_r
 .text.fclose   0x0000000080003b86        0xc /home/xinhao/crosstools/riscv64-unknown-elf_rv64imafdc/bin/../lib/gcc/riscv64-unknown-elf/12.2.0/../../../../riscv64-unknown-elf/lib/libc.a(lib_a-fclose.o)
                0x0000000080003b86                fclose
 .text          0x0000000080003b92        0x0 /home/xinhao/crosstools/riscv64-unknown-elf_rv64imafdc/bin/../lib/gcc/riscv64-unknown-elf/12.2.0/../../../../riscv64-unknown-elf/lib/libc.a(lib_a-fstatr.o)
 .text._fstat_r
                0x0000000080003b92       0x3c /home/xinhao/crosstools/riscv64-unknown-elf_rv64imafdc/bin/../lib/gcc/riscv64-unknown-elf/12.2.0/../../../../riscv64-unknown-elf/lib/libc.a(lib_a-fstatr.o)
                0x0000000080003b92                _fstat_r
 .text          0x0000000080003bce        0x0 /home/xinhao/crosstools/riscv64-unknown-elf_rv64imafdc/bin/../lib/gcc/riscv64-unknown-elf/12.2.0/../../../../riscv64-unknown-elf/lib/libc.a(lib_a-isattyr.o)
 .text._isatty_r
                0x0000000080003bce       0x38 /home/xinhao/crosstools/riscv64-unknown-elf_rv64imafdc/bin/../lib/gcc/riscv64-unknown-elf/12.2.0/../../../../riscv64-unknown-elf/lib/libc.a(lib_a-isattyr.o)
                0x0000000080003bce                _isatty_r
 .text          0x0000000080003c06        0x0 /home/xinhao/crosstools/riscv64-unknown-elf_rv64imafdc/bin/../lib/gcc/riscv64-unknown-elf/12.2.0/../../../../riscv64-unknown-elf/lib/libc.a(lib_a-lseekr.o)
 .text._lseek_r
                0x0000000080003c06       0x3e /home/xinhao/crosstools/riscv64-unknown-elf_rv64imafdc/bin/../lib/gcc/riscv64-unknown-elf/12.2.0/../../../../riscv64-unknown-elf/lib/libc.a(lib_a-lseekr.o)
                0x0000000080003c06                _lseek_r
 .text          0x0000000080003c44        0x0 /home/xinhao/crosstools/riscv64-unknown-elf_rv64imafdc/bin/../lib/gcc/riscv64-unknown-elf/12.2.0/../../../../riscv64-unknown-elf/lib/libc.a(lib_a-readr.o)
 .text._read_r  0x0000000080003c44       0x3e /home/xinhao/crosstools/riscv64-unknown-elf_rv64imafdc/bin/../lib/gcc/riscv64-unknown-elf/12.2.0/../../../../riscv64-unknown-elf/lib/libc.a(lib_a-readr.o)
                0x0000000080003c44                _read_r
 .text          0x0000000080003c82        0x0 /home/xinhao/crosstools/riscv64-unknown-elf_rv64imafdc/bin/../lib/gcc/riscv64-unknown-elf/12.2.0/../../../../riscv64-unknown-elf/lib/libc.a(lib_a-reent.o)
 .text.cleanup_glue
                0x0000000080003c82       0x62 /home/xinhao/crosstools/riscv64-unknown-elf_rv64imafdc/bin/../lib/gcc/riscv64-unknown-elf/12.2.0/../../../../riscv64-unknown-elf/lib/libc.a(lib_a-reent.o)
                0x0000000080003c82                cleanup_glue
 .text._reclaim_reent
                0x0000000080003ce4       0xb4 /home/xinhao/crosstools/riscv64-unknown-elf_rv64imafdc/bin/../lib/gcc/riscv64-unknown-elf/12.2.0/../../../../riscv64-unknown-elf/lib/libc.a(lib_a-reent.o)
                0x0000000080003ce4                _reclaim_reent
 .text          0x0000000080003d98        0x0 /home/xinhao/crosstools/riscv64-unknown-elf_rv64imafdc/bin/../lib/gcc/riscv64-unknown-elf/12.2.0/../../../../riscv64-unknown-elf/lib/libnosys.a(sbrk.o)
 .text._sbrk    0x0000000080003d98       0x24 /home/xinhao/crosstools/riscv64-unknown-elf_rv64imafdc/bin/../lib/gcc/riscv64-unknown-elf/12.2.0/../../../../riscv64-unknown-elf/lib/libnosys.a(sbrk.o)
                0x0000000080003d98                _sbrk
 *(.gnu.linkonce.t.*)

.fini           0x0000000080003dbc        0x0
 *(SORT_NONE(.fini))
                0x0000000080003dbc                _etext = .

.rodata.align   0x0000000080003dbc        0x4
                0x0000000080003dc0                . = ALIGN (0x10)
 *fill*         0x0000000080003dbc        0x4 
                0x0000000080003dc0                _rodata = .

.rodata.start   0x0000000080003dc0        0x0
                0x0000000080003dc0                _rodata_lma = LOADADDR (.rodata.start)

.rodata         0x0000000080003dc0       0x20
 *(.rdata)
 *(.rodata .rodata.*)
 .rodata.str1.8
                0x0000000080003dc0        0xd main.o
 *fill*         0x0000000080003dcd        0x3 
 .rodata._puts_r.str1.8
                0x0000000080003dd0        0x2 /home/xinhao/crosstools/riscv64-unknown-elf_rv64imafdc/bin/../lib/gcc/riscv64-unknown-elf/12.2.0/../../../../riscv64-unknown-elf/lib/libc.a(lib_a-puts.o)
 *(.gnu.linkonce.r.*)
                0x0000000080003de0                . = ALIGN (0x10)
 *fill*         0x0000000080003dd2        0xe 
                0x0000000080003de0                _erodata = .

.eh_frame       0x0000000080003de0       0x2c
 .eh_frame      0x0000000080003de0       0x2c start.o
                                         0x30 (size before relaxing)

.rela.dyn       0x0000000080003e10        0x0
 .rela.init     0x0000000080003e10        0x0 cp.o
 .rela.text._sbrk
                0x0000000080003e10        0x0 cp.o

.data.align     0x0000000080003e0c        0x4
                0x0000000080003e10                . = ALIGN (0x10)
 *fill*         0x0000000080003e0c        0x4 
                0x0000000080003e10                _data = .

.data.start     0x0000000080003e10        0x0
                0x0000000080003e10                _data_lma = LOADADDR (.data.start)

.data           0x0000000080003e10      0xfb0
 *(.data .data.*)
 .data          0x0000000080003e10        0x0 cp.o
 .data          0x0000000080003e10        0x0 portASM.o
 .data          0x0000000080003e10        0x0 start.o
 .data          0x0000000080003e10        0x0 vector.o
 .data          0x0000000080003e10        0x0 delay.o
 .data          0x0000000080003e10        0x0 dma.o
 .data          0x0000000080003e10        0x0 main.o
 .data          0x0000000080003e10        0x0 plic.o
 .data          0x0000000080003e10        0x0 syscall.o
 .data          0x0000000080003e10        0x0 tick.o
 .data          0x0000000080003e10        0x0 /home/xinhao/crosstools/riscv64-unknown-elf_rv64imafdc/bin/../lib/gcc/riscv64-unknown-elf/12.2.0/../../../../riscv64-unknown-elf/lib/libc.a(lib_a-errno.o)
 .data          0x0000000080003e10        0x0 /home/xinhao/crosstools/riscv64-unknown-elf_rv64imafdc/bin/../lib/gcc/riscv64-unknown-elf/12.2.0/../../../../riscv64-unknown-elf/lib/libc.a(lib_a-impure.o)
 .data.impure_data
                0x0000000080003e10      0x748 /home/xinhao/crosstools/riscv64-unknown-elf_rv64imafdc/bin/../lib/gcc/riscv64-unknown-elf/12.2.0/../../../../riscv64-unknown-elf/lib/libc.a(lib_a-impure.o)
 .data          0x0000000080004558        0x0 /home/xinhao/crosstools/riscv64-unknown-elf_rv64imafdc/bin/../lib/gcc/riscv64-unknown-elf/12.2.0/../../../../riscv64-unknown-elf/lib/libc.a(lib_a-puts.o)
 .data          0x0000000080004558        0x0 /home/xinhao/crosstools/riscv64-unknown-elf_rv64imafdc/bin/../lib/gcc/riscv64-unknown-elf/12.2.0/../../../../riscv64-unknown-elf/lib/libc.a(lib_a-setvbuf.o)
 .data          0x0000000080004558        0x0 /home/xinhao/crosstools/riscv64-unknown-elf_rv64imafdc/bin/../lib/gcc/riscv64-unknown-elf/12.2.0/../../../../riscv64-unknown-elf/lib/libc.a(lib_a-strlen.o)
 .data          0x0000000080004558        0x0 /home/xinhao/crosstools/riscv64-unknown-elf_rv64imafdc/bin/../lib/gcc/riscv64-unknown-elf/12.2.0/../../../../riscv64-unknown-elf/lib/libc.a(lib_a-fflush.o)
 .data          0x0000000080004558        0x0 /home/xinhao/crosstools/riscv64-unknown-elf_rv64imafdc/bin/../lib/gcc/riscv64-unknown-elf/12.2.0/../../../../riscv64-unknown-elf/lib/libc.a(lib_a-findfp.o)
 .data          0x0000000080004558        0x0 /home/xinhao/crosstools/riscv64-unknown-elf_rv64imafdc/bin/../lib/gcc/riscv64-unknown-elf/12.2.0/../../../../riscv64-unknown-elf/lib/libc.a(lib_a-freer.o)
 .data          0x0000000080004558        0x0 /home/xinhao/crosstools/riscv64-unknown-elf_rv64imafdc/bin/../lib/gcc/riscv64-unknown-elf/12.2.0/../../../../riscv64-unknown-elf/lib/libc.a(lib_a-fvwrite.o)
 .data          0x0000000080004558        0x0 /home/xinhao/crosstools/riscv64-unknown-elf_rv64imafdc/bin/../lib/gcc/riscv64-unknown-elf/12.2.0/../../../../riscv64-unknown-elf/lib/libc.a(lib_a-fwalk.o)
 .data          0x0000000080004558        0x0 /home/xinhao/crosstools/riscv64-unknown-elf_rv64imafdc/bin/../lib/gcc/riscv64-unknown-elf/12.2.0/../../../../riscv64-unknown-elf/lib/libc.a(lib_a-makebuf.o)
 .data          0x0000000080004558        0x0 /home/xinhao/crosstools/riscv64-unknown-elf_rv64imafdc/bin/../lib/gcc/riscv64-unknown-elf/12.2.0/../../../../riscv64-unknown-elf/lib/libc.a(lib_a-malloc.o)
 .data          0x0000000080004558        0x0 /home/xinhao/crosstools/riscv64-unknown-elf_rv64imafdc/bin/../lib/gcc/riscv64-unknown-elf/12.2.0/../../../../riscv64-unknown-elf/lib/libc.a(lib_a-mallocr.o)
 .data.__malloc_av_
                0x0000000080004558      0x810 /home/xinhao/crosstools/riscv64-unknown-elf_rv64imafdc/bin/../lib/gcc/riscv64-unknown-elf/12.2.0/../../../../riscv64-unknown-elf/lib/libc.a(lib_a-mallocr.o)
                0x0000000080004558                __malloc_av_
 .data          0x0000000080004d68        0x0 /home/xinhao/crosstools/riscv64-unknown-elf_rv64imafdc/bin/../lib/gcc/riscv64-unknown-elf/12.2.0/../../../../riscv64-unknown-elf/lib/libc.a(lib_a-memchr.o)
 .data          0x0000000080004d68        0x0 /home/xinhao/crosstools/riscv64-unknown-elf_rv64imafdc/bin/../lib/gcc/riscv64-unknown-elf/12.2.0/../../../../riscv64-unknown-elf/lib/libc.a(lib_a-memcpy.o)
 .data          0x0000000080004d68        0x0 /home/xinhao/crosstools/riscv64-unknown-elf_rv64imafdc/bin/../lib/gcc/riscv64-unknown-elf/12.2.0/../../../../riscv64-unknown-elf/lib/libc.a(lib_a-memmove-stub.o)
 .data          0x0000000080004d68        0x0 /home/xinhao/crosstools/riscv64-unknown-elf_rv64imafdc/bin/../lib/gcc/riscv64-unknown-elf/12.2.0/../../../../riscv64-unknown-elf/lib/libc.a(lib_a-memset.o)
 .data          0x0000000080004d68        0x0 /home/xinhao/crosstools/riscv64-unknown-elf_rv64imafdc/bin/../lib/gcc/riscv64-unknown-elf/12.2.0/../../../../riscv64-unknown-elf/lib/libc.a(lib_a-mlock.o)
 .data          0x0000000080004d68        0x0 /home/xinhao/crosstools/riscv64-unknown-elf_rv64imafdc/bin/../lib/gcc/riscv64-unknown-elf/12.2.0/../../../../riscv64-unknown-elf/lib/libc.a(lib_a-reallocr.o)
 .data          0x0000000080004d68        0x0 /home/xinhao/crosstools/riscv64-unknown-elf_rv64imafdc/bin/../lib/gcc/riscv64-unknown-elf/12.2.0/../../../../riscv64-unknown-elf/lib/libc.a(lib_a-sbrkr.o)
 .data          0x0000000080004d68        0x0 /home/xinhao/crosstools/riscv64-unknown-elf_rv64imafdc/bin/../lib/gcc/riscv64-unknown-elf/12.2.0/../../../../riscv64-unknown-elf/lib/libc.a(lib_a-stdio.o)
 .data          0x0000000080004d68        0x0 /home/xinhao/crosstools/riscv64-unknown-elf_rv64imafdc/bin/../lib/gcc/riscv64-unknown-elf/12.2.0/../../../../riscv64-unknown-elf/lib/libc.a(lib_a-writer.o)
 .data          0x0000000080004d68        0x0 /home/xinhao/crosstools/riscv64-unknown-elf_rv64imafdc/bin/../lib/gcc/riscv64-unknown-elf/12.2.0/../../../../riscv64-unknown-elf/lib/libc.a(lib_a-wsetup.o)
 .data          0x0000000080004d68        0x0 /home/xinhao/crosstools/riscv64-unknown-elf_rv64imafdc/bin/../lib/gcc/riscv64-unknown-elf/12.2.0/../../../../riscv64-unknown-elf/lib/libc.a(lib_a-closer.o)
 .data          0x0000000080004d68        0x0 /home/xinhao/crosstools/riscv64-unknown-elf_rv64imafdc/bin/../lib/gcc/riscv64-unknown-elf/12.2.0/../../../../riscv64-unknown-elf/lib/libc.a(lib_a-fclose.o)
 .data          0x0000000080004d68        0x0 /home/xinhao/crosstools/riscv64-unknown-elf_rv64imafdc/bin/../lib/gcc/riscv64-unknown-elf/12.2.0/../../../../riscv64-unknown-elf/lib/libc.a(lib_a-fstatr.o)
 .data          0x0000000080004d68        0x0 /home/xinhao/crosstools/riscv64-unknown-elf_rv64imafdc/bin/../lib/gcc/riscv64-unknown-elf/12.2.0/../../../../riscv64-unknown-elf/lib/libc.a(lib_a-isattyr.o)
 .data          0x0000000080004d68        0x0 /home/xinhao/crosstools/riscv64-unknown-elf_rv64imafdc/bin/../lib/gcc/riscv64-unknown-elf/12.2.0/../../../../riscv64-unknown-elf/lib/libc.a(lib_a-lseekr.o)
 .data          0x0000000080004d68        0x0 /home/xinhao/crosstools/riscv64-unknown-elf_rv64imafdc/bin/../lib/gcc/riscv64-unknown-elf/12.2.0/../../../../riscv64-unknown-elf/lib/libc.a(lib_a-readr.o)
 .data          0x0000000080004d68        0x0 /home/xinhao/crosstools/riscv64-unknown-elf_rv64imafdc/bin/../lib/gcc/riscv64-unknown-elf/12.2.0/../../../../riscv64-unknown-elf/lib/libc.a(lib_a-reent.o)
 .data          0x0000000080004d68        0x0 /home/xinhao/crosstools/riscv64-unknown-elf_rv64imafdc/bin/../lib/gcc/riscv64-unknown-elf/12.2.0/../../../../riscv64-unknown-elf/lib/libnosys.a(sbrk.o)
 *(.gnu.linkonce.d.*)
                0x0000000080004d70                . = ALIGN (0x10)
 *fill*         0x0000000080004d68        0x8 
                0x0000000080005570                PROVIDE (__global_pointer$ = (. + 0x800))
 *(.sdata .sdata.*)
 .sdata._impure_ptr
                0x0000000080004d70        0x8 /home/xinhao/crosstools/riscv64-unknown-elf_rv64imafdc/bin/../lib/gcc/riscv64-unknown-elf/12.2.0/../../../../riscv64-unknown-elf/lib/libc.a(lib_a-impure.o)
                0x0000000080004d70                _impure_ptr
 .sdata.__malloc_sbrk_base
                0x0000000080004d78        0x8 /home/xinhao/crosstools/riscv64-unknown-elf_rv64imafdc/bin/../lib/gcc/riscv64-unknown-elf/12.2.0/../../../../riscv64-unknown-elf/lib/libc.a(lib_a-mallocr.o)
                0x0000000080004d78                __malloc_sbrk_base
 .sdata.__malloc_trim_threshold
                0x0000000080004d80        0x8 /home/xinhao/crosstools/riscv64-unknown-elf_rv64imafdc/bin/../lib/gcc/riscv64-unknown-elf/12.2.0/../../../../riscv64-unknown-elf/lib/libc.a(lib_a-mallocr.o)
                0x0000000080004d80                __malloc_trim_threshold
 *(.sdata2 .sdata2.*)
 *(.gnu.linkonce.s.*)
                0x0000000080004d90                . = ALIGN (0x10)
 *fill*         0x0000000080004d88        0x8 
 *(.srodata.cst16)
 *(.srodata.cst8)
 .srodata.cst8  0x0000000080004d90        0x8 dma.o
 .srodata.cst8  0x0000000080004d98        0x8 /home/xinhao/crosstools/riscv64-unknown-elf_rv64imafdc/bin/../lib/gcc/riscv64-unknown-elf/12.2.0/../../../../riscv64-unknown-elf/lib/libc.a(lib_a-strlen.o)
 .srodata.cst8  0x0000000080004da0       0x10 /home/xinhao/crosstools/riscv64-unknown-elf_rv64imafdc/bin/../lib/gcc/riscv64-unknown-elf/12.2.0/../../../../riscv64-unknown-elf/lib/libc.a(lib_a-memchr.o)
 *(.srodata.cst4)
 *(.srodata.cst2)
 *(.srodata .srodata.*)
 .srodata._global_impure_ptr
                0x0000000080004db0        0x8 /home/xinhao/crosstools/riscv64-unknown-elf_rv64imafdc/bin/../lib/gcc/riscv64-unknown-elf/12.2.0/../../../../riscv64-unknown-elf/lib/libc.a(lib_a-impure.o)
                0x0000000080004db0                _global_impure_ptr
 *(._user_heap ._user_heap*)
                0x0000000080004dc0                . = ALIGN (0x10)
 *fill*         0x0000000080004db8        0x8 
                0x0000000080004dc0                _edata = .

.bss.align      0x0000000080004dc0        0x0
                0x0000000080004dc0                . = ALIGN (0x10)
                0x0000000080004dc0                _bss = .

.bss.start      0x0000000080004dc0        0x0
                0x0000000080004dc0                _bss_lma = LOADADDR (.bss.start)

.bss            0x0000000080004dc0       0x70
 *(.sbss*)
 .sbss          0x0000000080004dc0       0x18 main.o
                0x0000000080004dc0                take_cycles
                0x0000000080004dc8                end_cycles
                0x0000000080004dd0                start_cycles
 .sbss          0x0000000080004dd8        0x8 tick.o
                0x0000000080004dd8                tick_cycles
 .sbss.__malloc_max_total_mem
                0x0000000080004de0        0x8 /home/xinhao/crosstools/riscv64-unknown-elf_rv64imafdc/bin/../lib/gcc/riscv64-unknown-elf/12.2.0/../../../../riscv64-unknown-elf/lib/libc.a(lib_a-mallocr.o)
                0x0000000080004de0                __malloc_max_total_mem
 .sbss.__malloc_max_sbrked_mem
                0x0000000080004de8        0x8 /home/xinhao/crosstools/riscv64-unknown-elf_rv64imafdc/bin/../lib/gcc/riscv64-unknown-elf/12.2.0/../../../../riscv64-unknown-elf/lib/libc.a(lib_a-mallocr.o)
                0x0000000080004de8                __malloc_max_sbrked_mem
 .sbss.__malloc_top_pad
                0x0000000080004df0        0x8 /home/xinhao/crosstools/riscv64-unknown-elf_rv64imafdc/bin/../lib/gcc/riscv64-unknown-elf/12.2.0/../../../../riscv64-unknown-elf/lib/libc.a(lib_a-mallocr.o)
                0x0000000080004df0                __malloc_top_pad
 .sbss.errno    0x0000000080004df8        0x4 /home/xinhao/crosstools/riscv64-unknown-elf_rv64imafdc/bin/../lib/gcc/riscv64-unknown-elf/12.2.0/../../../../riscv64-unknown-elf/lib/libc.a(lib_a-reent.o)
                0x0000000080004df8                errno
 *fill*         0x0000000080004dfc        0x4 
 .sbss.heap_end.0
                0x0000000080004e00        0x8 /home/xinhao/crosstools/riscv64-unknown-elf_rv64imafdc/bin/../lib/gcc/riscv64-unknown-elf/12.2.0/../../../../riscv64-unknown-elf/lib/libnosys.a(sbrk.o)
 *(.gnu.linkonce.sb.*)
 *(.bss .bss.*)
 .bss           0x0000000080004e08        0x0 cp.o
 .bss           0x0000000080004e08        0x0 portASM.o
 .bss           0x0000000080004e08        0x0 start.o
 .bss           0x0000000080004e08        0x0 vector.o
 .bss           0x0000000080004e08        0x0 delay.o
 .bss           0x0000000080004e08        0x0 dma.o
 .bss           0x0000000080004e08        0x0 main.o
 .bss           0x0000000080004e08        0x0 plic.o
 .bss           0x0000000080004e08        0x0 syscall.o
 .bss           0x0000000080004e08        0x0 tick.o
 .bss           0x0000000080004e08        0x0 /home/xinhao/crosstools/riscv64-unknown-elf_rv64imafdc/bin/../lib/gcc/riscv64-unknown-elf/12.2.0/../../../../riscv64-unknown-elf/lib/libc.a(lib_a-errno.o)
 .bss           0x0000000080004e08        0x0 /home/xinhao/crosstools/riscv64-unknown-elf_rv64imafdc/bin/../lib/gcc/riscv64-unknown-elf/12.2.0/../../../../riscv64-unknown-elf/lib/libc.a(lib_a-impure.o)
 .bss           0x0000000080004e08        0x0 /home/xinhao/crosstools/riscv64-unknown-elf_rv64imafdc/bin/../lib/gcc/riscv64-unknown-elf/12.2.0/../../../../riscv64-unknown-elf/lib/libc.a(lib_a-puts.o)
 .bss           0x0000000080004e08        0x0 /home/xinhao/crosstools/riscv64-unknown-elf_rv64imafdc/bin/../lib/gcc/riscv64-unknown-elf/12.2.0/../../../../riscv64-unknown-elf/lib/libc.a(lib_a-setvbuf.o)
 .bss           0x0000000080004e08        0x0 /home/xinhao/crosstools/riscv64-unknown-elf_rv64imafdc/bin/../lib/gcc/riscv64-unknown-elf/12.2.0/../../../../riscv64-unknown-elf/lib/libc.a(lib_a-strlen.o)
 .bss           0x0000000080004e08        0x0 /home/xinhao/crosstools/riscv64-unknown-elf_rv64imafdc/bin/../lib/gcc/riscv64-unknown-elf/12.2.0/../../../../riscv64-unknown-elf/lib/libc.a(lib_a-fflush.o)
 .bss           0x0000000080004e08        0x0 /home/xinhao/crosstools/riscv64-unknown-elf_rv64imafdc/bin/../lib/gcc/riscv64-unknown-elf/12.2.0/../../../../riscv64-unknown-elf/lib/libc.a(lib_a-findfp.o)
 .bss           0x0000000080004e08        0x0 /home/xinhao/crosstools/riscv64-unknown-elf_rv64imafdc/bin/../lib/gcc/riscv64-unknown-elf/12.2.0/../../../../riscv64-unknown-elf/lib/libc.a(lib_a-freer.o)
 .bss           0x0000000080004e08        0x0 /home/xinhao/crosstools/riscv64-unknown-elf_rv64imafdc/bin/../lib/gcc/riscv64-unknown-elf/12.2.0/../../../../riscv64-unknown-elf/lib/libc.a(lib_a-fvwrite.o)
 .bss           0x0000000080004e08        0x0 /home/xinhao/crosstools/riscv64-unknown-elf_rv64imafdc/bin/../lib/gcc/riscv64-unknown-elf/12.2.0/../../../../riscv64-unknown-elf/lib/libc.a(lib_a-fwalk.o)
 .bss           0x0000000080004e08        0x0 /home/xinhao/crosstools/riscv64-unknown-elf_rv64imafdc/bin/../lib/gcc/riscv64-unknown-elf/12.2.0/../../../../riscv64-unknown-elf/lib/libc.a(lib_a-makebuf.o)
 .bss           0x0000000080004e08        0x0 /home/xinhao/crosstools/riscv64-unknown-elf_rv64imafdc/bin/../lib/gcc/riscv64-unknown-elf/12.2.0/../../../../riscv64-unknown-elf/lib/libc.a(lib_a-malloc.o)
 .bss           0x0000000080004e08        0x0 /home/xinhao/crosstools/riscv64-unknown-elf_rv64imafdc/bin/../lib/gcc/riscv64-unknown-elf/12.2.0/../../../../riscv64-unknown-elf/lib/libc.a(lib_a-mallocr.o)
 .bss.__malloc_current_mallinfo
                0x0000000080004e08       0x28 /home/xinhao/crosstools/riscv64-unknown-elf_rv64imafdc/bin/../lib/gcc/riscv64-unknown-elf/12.2.0/../../../../riscv64-unknown-elf/lib/libc.a(lib_a-mallocr.o)
                0x0000000080004e08                __malloc_current_mallinfo
 .bss           0x0000000080004e30        0x0 /home/xinhao/crosstools/riscv64-unknown-elf_rv64imafdc/bin/../lib/gcc/riscv64-unknown-elf/12.2.0/../../../../riscv64-unknown-elf/lib/libc.a(lib_a-memchr.o)
 .bss           0x0000000080004e30        0x0 /home/xinhao/crosstools/riscv64-unknown-elf_rv64imafdc/bin/../lib/gcc/riscv64-unknown-elf/12.2.0/../../../../riscv64-unknown-elf/lib/libc.a(lib_a-memcpy.o)
 .bss           0x0000000080004e30        0x0 /home/xinhao/crosstools/riscv64-unknown-elf_rv64imafdc/bin/../lib/gcc/riscv64-unknown-elf/12.2.0/../../../../riscv64-unknown-elf/lib/libc.a(lib_a-memmove-stub.o)
 .bss           0x0000000080004e30        0x0 /home/xinhao/crosstools/riscv64-unknown-elf_rv64imafdc/bin/../lib/gcc/riscv64-unknown-elf/12.2.0/../../../../riscv64-unknown-elf/lib/libc.a(lib_a-memset.o)
 .bss           0x0000000080004e30        0x0 /home/xinhao/crosstools/riscv64-unknown-elf_rv64imafdc/bin/../lib/gcc/riscv64-unknown-elf/12.2.0/../../../../riscv64-unknown-elf/lib/libc.a(lib_a-mlock.o)
 .bss           0x0000000080004e30        0x0 /home/xinhao/crosstools/riscv64-unknown-elf_rv64imafdc/bin/../lib/gcc/riscv64-unknown-elf/12.2.0/../../../../riscv64-unknown-elf/lib/libc.a(lib_a-reallocr.o)
 .bss           0x0000000080004e30        0x0 /home/xinhao/crosstools/riscv64-unknown-elf_rv64imafdc/bin/../lib/gcc/riscv64-unknown-elf/12.2.0/../../../../riscv64-unknown-elf/lib/libc.a(lib_a-sbrkr.o)
 .bss           0x0000000080004e30        0x0 /home/xinhao/crosstools/riscv64-unknown-elf_rv64imafdc/bin/../lib/gcc/riscv64-unknown-elf/12.2.0/../../../../riscv64-unknown-elf/lib/libc.a(lib_a-stdio.o)
 .bss           0x0000000080004e30        0x0 /home/xinhao/crosstools/riscv64-unknown-elf_rv64imafdc/bin/../lib/gcc/riscv64-unknown-elf/12.2.0/../../../../riscv64-unknown-elf/lib/libc.a(lib_a-writer.o)
 .bss           0x0000000080004e30        0x0 /home/xinhao/crosstools/riscv64-unknown-elf_rv64imafdc/bin/../lib/gcc/riscv64-unknown-elf/12.2.0/../../../../riscv64-unknown-elf/lib/libc.a(lib_a-wsetup.o)
 .bss           0x0000000080004e30        0x0 /home/xinhao/crosstools/riscv64-unknown-elf_rv64imafdc/bin/../lib/gcc/riscv64-unknown-elf/12.2.0/../../../../riscv64-unknown-elf/lib/libc.a(lib_a-closer.o)
 .bss           0x0000000080004e30        0x0 /home/xinhao/crosstools/riscv64-unknown-elf_rv64imafdc/bin/../lib/gcc/riscv64-unknown-elf/12.2.0/../../../../riscv64-unknown-elf/lib/libc.a(lib_a-fclose.o)
 .bss           0x0000000080004e30        0x0 /home/xinhao/crosstools/riscv64-unknown-elf_rv64imafdc/bin/../lib/gcc/riscv64-unknown-elf/12.2.0/../../../../riscv64-unknown-elf/lib/libc.a(lib_a-fstatr.o)
 .bss           0x0000000080004e30        0x0 /home/xinhao/crosstools/riscv64-unknown-elf_rv64imafdc/bin/../lib/gcc/riscv64-unknown-elf/12.2.0/../../../../riscv64-unknown-elf/lib/libc.a(lib_a-isattyr.o)
 .bss           0x0000000080004e30        0x0 /home/xinhao/crosstools/riscv64-unknown-elf_rv64imafdc/bin/../lib/gcc/riscv64-unknown-elf/12.2.0/../../../../riscv64-unknown-elf/lib/libc.a(lib_a-lseekr.o)
 .bss           0x0000000080004e30        0x0 /home/xinhao/crosstools/riscv64-unknown-elf_rv64imafdc/bin/../lib/gcc/riscv64-unknown-elf/12.2.0/../../../../riscv64-unknown-elf/lib/libc.a(lib_a-readr.o)
 .bss           0x0000000080004e30        0x0 /home/xinhao/crosstools/riscv64-unknown-elf_rv64imafdc/bin/../lib/gcc/riscv64-unknown-elf/12.2.0/../../../../riscv64-unknown-elf/lib/libc.a(lib_a-reent.o)
 .bss           0x0000000080004e30        0x0 /home/xinhao/crosstools/riscv64-unknown-elf_rv64imafdc/bin/../lib/gcc/riscv64-unknown-elf/12.2.0/../../../../riscv64-unknown-elf/lib/libnosys.a(sbrk.o)
 *(.gnu.linkonce.b.*)
 *(COMMON)
                0x0000000080004e30                . = ALIGN (0x10)
                0x0000000080004e30                _ebss = .

._user_heap     0x0000000080004e30        0x0
                0x0000000080004e30                . = ALIGN (0x10)
 *(SORT_NONE(._user_heap))
                0x0000000080004e30                _end = .
                0x0000000080004e30                PROVIDE (end = .)
                [!provide]                        PROVIDE (__heap_start = .)
                [!provide]                        PROVIDE (__heap_end = 0x80040000)

.udata
 *(.udata)
LOAD cp.o
LOAD portASM.o
LOAD start.o
LOAD vector.o
LOAD delay.o
LOAD dma.o
LOAD main.o
LOAD plic.o
LOAD syscall.o
LOAD tick.o
LOAD /home/xinhao/crosstools/riscv64-unknown-elf_rv64imafdc/bin/../lib/gcc/riscv64-unknown-elf/12.2.0/../../../../riscv64-unknown-elf/lib/libc.a
LOAD /home/xinhao/crosstools/riscv64-unknown-elf_rv64imafdc/bin/../lib/gcc/riscv64-unknown-elf/12.2.0/../../../../riscv64-unknown-elf/lib/libm.a
LOAD /home/xinhao/crosstools/riscv64-unknown-elf_rv64imafdc/bin/../lib/gcc/riscv64-unknown-elf/12.2.0/libgcc.a
LOAD /home/xinhao/crosstools/riscv64-unknown-elf_rv64imafdc/bin/../lib/gcc/riscv64-unknown-elf/12.2.0/../../../../riscv64-unknown-elf/lib/libnosys.a
OUTPUT(/home/xinhao/work/ne004-plus/riscv64/out/riscv64.elf elf64-littleriscv)

.riscv.attributes
                0x0000000000000000       0x39
 .riscv.attributes
                0x0000000000000000       0x35 cp.o
 .riscv.attributes
                0x0000000000000035       0x37 portASM.o
 .riscv.attributes
                0x000000000000006c       0x37 start.o
 .riscv.attributes
                0x00000000000000a3       0x2e vector.o
 .riscv.attributes
                0x00000000000000d1       0x35 delay.o
 .riscv.attributes
                0x0000000000000106       0x35 dma.o
 .riscv.attributes
                0x000000000000013b       0x39 main.o
 .riscv.attributes
                0x0000000000000174       0x35 plic.o
 .riscv.attributes
                0x00000000000001a9       0x35 syscall.o
 .riscv.attributes
                0x00000000000001de       0x39 tick.o
 .riscv.attributes
                0x0000000000000217       0x35 /home/xinhao/crosstools/riscv64-unknown-elf_rv64imafdc/bin/../lib/gcc/riscv64-unknown-elf/12.2.0/../../../../riscv64-unknown-elf/lib/libc.a(lib_a-errno.o)
 .riscv.attributes
                0x000000000000024c       0x35 /home/xinhao/crosstools/riscv64-unknown-elf_rv64imafdc/bin/../lib/gcc/riscv64-unknown-elf/12.2.0/../../../../riscv64-unknown-elf/lib/libc.a(lib_a-impure.o)
 .riscv.attributes
                0x0000000000000281       0x35 /home/xinhao/crosstools/riscv64-unknown-elf_rv64imafdc/bin/../lib/gcc/riscv64-unknown-elf/12.2.0/../../../../riscv64-unknown-elf/lib/libc.a(lib_a-puts.o)
 .riscv.attributes
                0x00000000000002b6       0x35 /home/xinhao/crosstools/riscv64-unknown-elf_rv64imafdc/bin/../lib/gcc/riscv64-unknown-elf/12.2.0/../../../../riscv64-unknown-elf/lib/libc.a(lib_a-setvbuf.o)
 .riscv.attributes
                0x00000000000002eb       0x35 /home/xinhao/crosstools/riscv64-unknown-elf_rv64imafdc/bin/../lib/gcc/riscv64-unknown-elf/12.2.0/../../../../riscv64-unknown-elf/lib/libc.a(lib_a-strlen.o)
 .riscv.attributes
                0x0000000000000320       0x35 /home/xinhao/crosstools/riscv64-unknown-elf_rv64imafdc/bin/../lib/gcc/riscv64-unknown-elf/12.2.0/../../../../riscv64-unknown-elf/lib/libc.a(lib_a-fflush.o)
 .riscv.attributes
                0x0000000000000355       0x35 /home/xinhao/crosstools/riscv64-unknown-elf_rv64imafdc/bin/../lib/gcc/riscv64-unknown-elf/12.2.0/../../../../riscv64-unknown-elf/lib/libc.a(lib_a-findfp.o)
 .riscv.attributes
                0x000000000000038a       0x35 /home/xinhao/crosstools/riscv64-unknown-elf_rv64imafdc/bin/../lib/gcc/riscv64-unknown-elf/12.2.0/../../../../riscv64-unknown-elf/lib/libc.a(lib_a-freer.o)
 .riscv.attributes
                0x00000000000003bf       0x35 /home/xinhao/crosstools/riscv64-unknown-elf_rv64imafdc/bin/../lib/gcc/riscv64-unknown-elf/12.2.0/../../../../riscv64-unknown-elf/lib/libc.a(lib_a-fvwrite.o)
 .riscv.attributes
                0x00000000000003f4       0x35 /home/xinhao/crosstools/riscv64-unknown-elf_rv64imafdc/bin/../lib/gcc/riscv64-unknown-elf/12.2.0/../../../../riscv64-unknown-elf/lib/libc.a(lib_a-fwalk.o)
 .riscv.attributes
                0x0000000000000429       0x35 /home/xinhao/crosstools/riscv64-unknown-elf_rv64imafdc/bin/../lib/gcc/riscv64-unknown-elf/12.2.0/../../../../riscv64-unknown-elf/lib/libc.a(lib_a-makebuf.o)
 .riscv.attributes
                0x000000000000045e       0x35 /home/xinhao/crosstools/riscv64-unknown-elf_rv64imafdc/bin/../lib/gcc/riscv64-unknown-elf/12.2.0/../../../../riscv64-unknown-elf/lib/libc.a(lib_a-malloc.o)
 .riscv.attributes
                0x0000000000000493       0x35 /home/xinhao/crosstools/riscv64-unknown-elf_rv64imafdc/bin/../lib/gcc/riscv64-unknown-elf/12.2.0/../../../../riscv64-unknown-elf/lib/libc.a(lib_a-mallocr.o)
 .riscv.attributes
                0x00000000000004c8       0x35 /home/xinhao/crosstools/riscv64-unknown-elf_rv64imafdc/bin/../lib/gcc/riscv64-unknown-elf/12.2.0/../../../../riscv64-unknown-elf/lib/libc.a(lib_a-memchr.o)
 .riscv.attributes
                0x00000000000004fd       0x35 /home/xinhao/crosstools/riscv64-unknown-elf_rv64imafdc/bin/../lib/gcc/riscv64-unknown-elf/12.2.0/../../../../riscv64-unknown-elf/lib/libc.a(lib_a-memcpy.o)
 .riscv.attributes
                0x0000000000000532       0x35 /home/xinhao/crosstools/riscv64-unknown-elf_rv64imafdc/bin/../lib/gcc/riscv64-unknown-elf/12.2.0/../../../../riscv64-unknown-elf/lib/libc.a(lib_a-memmove-stub.o)
 .riscv.attributes
                0x0000000000000567       0x33 /home/xinhao/crosstools/riscv64-unknown-elf_rv64imafdc/bin/../lib/gcc/riscv64-unknown-elf/12.2.0/../../../../riscv64-unknown-elf/lib/libc.a(lib_a-memset.o)
 .riscv.attributes
                0x000000000000059a       0x35 /home/xinhao/crosstools/riscv64-unknown-elf_rv64imafdc/bin/../lib/gcc/riscv64-unknown-elf/12.2.0/../../../../riscv64-unknown-elf/lib/libc.a(lib_a-mlock.o)
 .riscv.attributes
                0x00000000000005cf       0x35 /home/xinhao/crosstools/riscv64-unknown-elf_rv64imafdc/bin/../lib/gcc/riscv64-unknown-elf/12.2.0/../../../../riscv64-unknown-elf/lib/libc.a(lib_a-reallocr.o)
 .riscv.attributes
                0x0000000000000604       0x35 /home/xinhao/crosstools/riscv64-unknown-elf_rv64imafdc/bin/../lib/gcc/riscv64-unknown-elf/12.2.0/../../../../riscv64-unknown-elf/lib/libc.a(lib_a-sbrkr.o)
 .riscv.attributes
                0x0000000000000639       0x35 /home/xinhao/crosstools/riscv64-unknown-elf_rv64imafdc/bin/../lib/gcc/riscv64-unknown-elf/12.2.0/../../../../riscv64-unknown-elf/lib/libc.a(lib_a-stdio.o)
 .riscv.attributes
                0x000000000000066e       0x35 /home/xinhao/crosstools/riscv64-unknown-elf_rv64imafdc/bin/../lib/gcc/riscv64-unknown-elf/12.2.0/../../../../riscv64-unknown-elf/lib/libc.a(lib_a-writer.o)
 .riscv.attributes
                0x00000000000006a3       0x35 /home/xinhao/crosstools/riscv64-unknown-elf_rv64imafdc/bin/../lib/gcc/riscv64-unknown-elf/12.2.0/../../../../riscv64-unknown-elf/lib/libc.a(lib_a-wsetup.o)
 .riscv.attributes
                0x00000000000006d8       0x35 /home/xinhao/crosstools/riscv64-unknown-elf_rv64imafdc/bin/../lib/gcc/riscv64-unknown-elf/12.2.0/../../../../riscv64-unknown-elf/lib/libc.a(lib_a-closer.o)
 .riscv.attributes
                0x000000000000070d       0x35 /home/xinhao/crosstools/riscv64-unknown-elf_rv64imafdc/bin/../lib/gcc/riscv64-unknown-elf/12.2.0/../../../../riscv64-unknown-elf/lib/libc.a(lib_a-fclose.o)
 .riscv.attributes
                0x0000000000000742       0x35 /home/xinhao/crosstools/riscv64-unknown-elf_rv64imafdc/bin/../lib/gcc/riscv64-unknown-elf/12.2.0/../../../../riscv64-unknown-elf/lib/libc.a(lib_a-fstatr.o)
 .riscv.attributes
                0x0000000000000777       0x35 /home/xinhao/crosstools/riscv64-unknown-elf_rv64imafdc/bin/../lib/gcc/riscv64-unknown-elf/12.2.0/../../../../riscv64-unknown-elf/lib/libc.a(lib_a-isattyr.o)
 .riscv.attributes
                0x00000000000007ac       0x35 /home/xinhao/crosstools/riscv64-unknown-elf_rv64imafdc/bin/../lib/gcc/riscv64-unknown-elf/12.2.0/../../../../riscv64-unknown-elf/lib/libc.a(lib_a-lseekr.o)
 .riscv.attributes
                0x00000000000007e1       0x35 /home/xinhao/crosstools/riscv64-unknown-elf_rv64imafdc/bin/../lib/gcc/riscv64-unknown-elf/12.2.0/../../../../riscv64-unknown-elf/lib/libc.a(lib_a-readr.o)
 .riscv.attributes
                0x0000000000000816       0x35 /home/xinhao/crosstools/riscv64-unknown-elf_rv64imafdc/bin/../lib/gcc/riscv64-unknown-elf/12.2.0/../../../../riscv64-unknown-elf/lib/libc.a(lib_a-reent.o)
 .riscv.attributes
                0x000000000000084b       0x35 /home/xinhao/crosstools/riscv64-unknown-elf_rv64imafdc/bin/../lib/gcc/riscv64-unknown-elf/12.2.0/../../../../riscv64-unknown-elf/lib/libnosys.a(sbrk.o)

.comment        0x0000000000000000       0x2d
 .comment       0x0000000000000000       0x1b delay.o
                                         0x1c (size before relaxing)
 .comment       0x000000000000001b       0x1c dma.o
 .comment       0x000000000000001b       0x1c main.o
 .comment       0x000000000000001b       0x1c plic.o
 .comment       0x000000000000001b       0x1c syscall.o
 .comment       0x000000000000001b       0x1c tick.o
 .comment       0x000000000000001b       0x12 /home/xinhao/crosstools/riscv64-unknown-elf_rv64imafdc/bin/../lib/gcc/riscv64-unknown-elf/12.2.0/../../../../riscv64-unknown-elf/lib/libc.a(lib_a-errno.o)
                                         0x13 (size before relaxing)
 .comment       0x000000000000002d       0x13 /home/xinhao/crosstools/riscv64-unknown-elf_rv64imafdc/bin/../lib/gcc/riscv64-unknown-elf/12.2.0/../../../../riscv64-unknown-elf/lib/libc.a(lib_a-impure.o)
 .comment       0x000000000000002d       0x13 /home/xinhao/crosstools/riscv64-unknown-elf_rv64imafdc/bin/../lib/gcc/riscv64-unknown-elf/12.2.0/../../../../riscv64-unknown-elf/lib/libc.a(lib_a-puts.o)
 .comment       0x000000000000002d       0x13 /home/xinhao/crosstools/riscv64-unknown-elf_rv64imafdc/bin/../lib/gcc/riscv64-unknown-elf/12.2.0/../../../../riscv64-unknown-elf/lib/libc.a(lib_a-setvbuf.o)
 .comment       0x000000000000002d       0x13 /home/xinhao/crosstools/riscv64-unknown-elf_rv64imafdc/bin/../lib/gcc/riscv64-unknown-elf/12.2.0/../../../../riscv64-unknown-elf/lib/libc.a(lib_a-strlen.o)
 .comment       0x000000000000002d       0x13 /home/xinhao/crosstools/riscv64-unknown-elf_rv64imafdc/bin/../lib/gcc/riscv64-unknown-elf/12.2.0/../../../../riscv64-unknown-elf/lib/libc.a(lib_a-fflush.o)
 .comment       0x000000000000002d       0x13 /home/xinhao/crosstools/riscv64-unknown-elf_rv64imafdc/bin/../lib/gcc/riscv64-unknown-elf/12.2.0/../../../../riscv64-unknown-elf/lib/libc.a(lib_a-findfp.o)
 .comment       0x000000000000002d       0x13 /home/xinhao/crosstools/riscv64-unknown-elf_rv64imafdc/bin/../lib/gcc/riscv64-unknown-elf/12.2.0/../../../../riscv64-unknown-elf/lib/libc.a(lib_a-freer.o)
 .comment       0x000000000000002d       0x13 /home/xinhao/crosstools/riscv64-unknown-elf_rv64imafdc/bin/../lib/gcc/riscv64-unknown-elf/12.2.0/../../../../riscv64-unknown-elf/lib/libc.a(lib_a-fvwrite.o)
 .comment       0x000000000000002d       0x13 /home/xinhao/crosstools/riscv64-unknown-elf_rv64imafdc/bin/../lib/gcc/riscv64-unknown-elf/12.2.0/../../../../riscv64-unknown-elf/lib/libc.a(lib_a-fwalk.o)
 .comment       0x000000000000002d       0x13 /home/xinhao/crosstools/riscv64-unknown-elf_rv64imafdc/bin/../lib/gcc/riscv64-unknown-elf/12.2.0/../../../../riscv64-unknown-elf/lib/libc.a(lib_a-makebuf.o)
 .comment       0x000000000000002d       0x13 /home/xinhao/crosstools/riscv64-unknown-elf_rv64imafdc/bin/../lib/gcc/riscv64-unknown-elf/12.2.0/../../../../riscv64-unknown-elf/lib/libc.a(lib_a-malloc.o)
 .comment       0x000000000000002d       0x13 /home/xinhao/crosstools/riscv64-unknown-elf_rv64imafdc/bin/../lib/gcc/riscv64-unknown-elf/12.2.0/../../../../riscv64-unknown-elf/lib/libc.a(lib_a-mallocr.o)
 .comment       0x000000000000002d       0x13 /home/xinhao/crosstools/riscv64-unknown-elf_rv64imafdc/bin/../lib/gcc/riscv64-unknown-elf/12.2.0/../../../../riscv64-unknown-elf/lib/libc.a(lib_a-memchr.o)
 .comment       0x000000000000002d       0x13 /home/xinhao/crosstools/riscv64-unknown-elf_rv64imafdc/bin/../lib/gcc/riscv64-unknown-elf/12.2.0/../../../../riscv64-unknown-elf/lib/libc.a(lib_a-memcpy.o)
 .comment       0x000000000000002d       0x13 /home/xinhao/crosstools/riscv64-unknown-elf_rv64imafdc/bin/../lib/gcc/riscv64-unknown-elf/12.2.0/../../../../riscv64-unknown-elf/lib/libc.a(lib_a-memmove-stub.o)
 .comment       0x000000000000002d       0x13 /home/xinhao/crosstools/riscv64-unknown-elf_rv64imafdc/bin/../lib/gcc/riscv64-unknown-elf/12.2.0/../../../../riscv64-unknown-elf/lib/libc.a(lib_a-mlock.o)
 .comment       0x000000000000002d       0x13 /home/xinhao/crosstools/riscv64-unknown-elf_rv64imafdc/bin/../lib/gcc/riscv64-unknown-elf/12.2.0/../../../../riscv64-unknown-elf/lib/libc.a(lib_a-reallocr.o)
 .comment       0x000000000000002d       0x13 /home/xinhao/crosstools/riscv64-unknown-elf_rv64imafdc/bin/../lib/gcc/riscv64-unknown-elf/12.2.0/../../../../riscv64-unknown-elf/lib/libc.a(lib_a-sbrkr.o)
 .comment       0x000000000000002d       0x13 /home/xinhao/crosstools/riscv64-unknown-elf_rv64imafdc/bin/../lib/gcc/riscv64-unknown-elf/12.2.0/../../../../riscv64-unknown-elf/lib/libc.a(lib_a-stdio.o)
 .comment       0x000000000000002d       0x13 /home/xinhao/crosstools/riscv64-unknown-elf_rv64imafdc/bin/../lib/gcc/riscv64-unknown-elf/12.2.0/../../../../riscv64-unknown-elf/lib/libc.a(lib_a-writer.o)
 .comment       0x000000000000002d       0x13 /home/xinhao/crosstools/riscv64-unknown-elf_rv64imafdc/bin/../lib/gcc/riscv64-unknown-elf/12.2.0/../../../../riscv64-unknown-elf/lib/libc.a(lib_a-wsetup.o)
 .comment       0x000000000000002d       0x13 /home/xinhao/crosstools/riscv64-unknown-elf_rv64imafdc/bin/../lib/gcc/riscv64-unknown-elf/12.2.0/../../../../riscv64-unknown-elf/lib/libc.a(lib_a-closer.o)
 .comment       0x000000000000002d       0x13 /home/xinhao/crosstools/riscv64-unknown-elf_rv64imafdc/bin/../lib/gcc/riscv64-unknown-elf/12.2.0/../../../../riscv64-unknown-elf/lib/libc.a(lib_a-fclose.o)
 .comment       0x000000000000002d       0x13 /home/xinhao/crosstools/riscv64-unknown-elf_rv64imafdc/bin/../lib/gcc/riscv64-unknown-elf/12.2.0/../../../../riscv64-unknown-elf/lib/libc.a(lib_a-fstatr.o)
 .comment       0x000000000000002d       0x13 /home/xinhao/crosstools/riscv64-unknown-elf_rv64imafdc/bin/../lib/gcc/riscv64-unknown-elf/12.2.0/../../../../riscv64-unknown-elf/lib/libc.a(lib_a-isattyr.o)
 .comment       0x000000000000002d       0x13 /home/xinhao/crosstools/riscv64-unknown-elf_rv64imafdc/bin/../lib/gcc/riscv64-unknown-elf/12.2.0/../../../../riscv64-unknown-elf/lib/libc.a(lib_a-lseekr.o)
 .comment       0x000000000000002d       0x13 /home/xinhao/crosstools/riscv64-unknown-elf_rv64imafdc/bin/../lib/gcc/riscv64-unknown-elf/12.2.0/../../../../riscv64-unknown-elf/lib/libc.a(lib_a-readr.o)
 .comment       0x000000000000002d       0x13 /home/xinhao/crosstools/riscv64-unknown-elf_rv64imafdc/bin/../lib/gcc/riscv64-unknown-elf/12.2.0/../../../../riscv64-unknown-elf/lib/libc.a(lib_a-reent.o)
 .comment       0x000000000000002d       0x13 /home/xinhao/crosstools/riscv64-unknown-elf_rv64imafdc/bin/../lib/gcc/riscv64-unknown-elf/12.2.0/../../../../riscv64-unknown-elf/lib/libnosys.a(sbrk.o)

.debug_line     0x0000000000000000     0x126e
 .debug_line    0x0000000000000000      0x16e cp.o
 .debug_line    0x000000000000016e      0x114 portASM.o
 .debug_line    0x0000000000000282      0x2c4 start.o
 .debug_line    0x0000000000000546       0xa4 vector.o
 .debug_line    0x00000000000005ea       0xcb delay.o
 .debug_line    0x00000000000006b5      0x21f dma.o
 .debug_line    0x00000000000008d4      0x4b5 main.o
 .debug_line    0x0000000000000d89      0x133 plic.o
 .debug_line    0x0000000000000ebc      0x2a5 syscall.o
 .debug_line    0x0000000000001161      0x10d tick.o

.debug_line_str
                0x0000000000000000      0x24c
 .debug_line_str
                0x0000000000000000       0x2a cp.o
 .debug_line_str
                0x000000000000002a        0xa portASM.o
                                         0x2f (size before relaxing)
 .debug_line_str
                0x0000000000000034        0x8 start.o
                                         0x2d (size before relaxing)
 .debug_line_str
                0x000000000000003c        0x9 vector.o
                                         0x2e (size before relaxing)
 .debug_line_str
                0x0000000000000045        0x8 delay.o
                                         0x62 (size before relaxing)
 .debug_line_str
                0x000000000000004d       0xd3 dma.o
                                        0x129 (size before relaxing)
 .debug_line_str
                0x0000000000000120       0xee main.o
                                        0x21c (size before relaxing)
 .debug_line_str
                0x000000000000020e        0x7 plic.o
                                        0x12c (size before relaxing)
 .debug_line_str
                0x0000000000000215       0x30 syscall.o
                                        0x1cd (size before relaxing)
 .debug_line_str
                0x0000000000000245        0x7 tick.o
                                        0x12c (size before relaxing)

.debug_info     0x0000000000000000     0x1648
 .debug_info    0x0000000000000000       0x28 cp.o
 .debug_info    0x0000000000000028       0x23 portASM.o
 .debug_info    0x000000000000004b       0x29 start.o
 .debug_info    0x0000000000000074       0x28 vector.o
 .debug_info    0x000000000000009c       0x7b delay.o
 .debug_info    0x0000000000000117      0x141 dma.o
 .debug_info    0x0000000000000258      0xc86 main.o
 .debug_info    0x0000000000000ede      0x166 plic.o
 .debug_info    0x0000000000001044      0x4b4 syscall.o
 .debug_info    0x00000000000014f8      0x150 tick.o

.debug_abbrev   0x0000000000000000      0x80e
 .debug_abbrev  0x0000000000000000       0x14 cp.o
 .debug_abbrev  0x0000000000000014       0x12 portASM.o
 .debug_abbrev  0x0000000000000026       0x14 start.o
 .debug_abbrev  0x000000000000003a       0x14 vector.o
 .debug_abbrev  0x000000000000004e       0x5e delay.o
 .debug_abbrev  0x00000000000000ac       0x98 dma.o
 .debug_abbrev  0x0000000000000144      0x3b6 main.o
 .debug_abbrev  0x00000000000004fa       0xf9 plic.o
 .debug_abbrev  0x00000000000005f3      0x16b syscall.o
 .debug_abbrev  0x000000000000075e       0xb0 tick.o

.debug_aranges  0x0000000000000000      0x240
 .debug_aranges
                0x0000000000000000       0x30 cp.o
 .debug_aranges
                0x0000000000000030       0x80 portASM.o
 .debug_aranges
                0x00000000000000b0       0x30 start.o
 .debug_aranges
                0x00000000000000e0       0x30 vector.o
 .debug_aranges
                0x0000000000000110       0x30 delay.o
 .debug_aranges
                0x0000000000000140       0x30 dma.o
 .debug_aranges
                0x0000000000000170       0x40 main.o
 .debug_aranges
                0x00000000000001b0       0x30 plic.o
 .debug_aranges
                0x00000000000001e0       0x30 syscall.o
 .debug_aranges
                0x0000000000000210       0x30 tick.o

.debug_str      0x0000000000000000      0x7a7
 .debug_str     0x0000000000000000       0x36 cp.o
 .debug_str     0x0000000000000036        0xa portASM.o
                                         0x3b (size before relaxing)
 .debug_str     0x0000000000000040        0x8 start.o
                                         0x39 (size before relaxing)
 .debug_str     0x0000000000000048        0x9 vector.o
                                         0x3a (size before relaxing)
 .debug_str     0x0000000000000051       0x86 delay.o
                                         0x98 (size before relaxing)
 .debug_str     0x00000000000000d7       0xb0 dma.o
                                        0x170 (size before relaxing)
 .debug_str     0x0000000000000187      0x4d2 main.o
                                        0x64b (size before relaxing)
 .debug_str     0x0000000000000659        0xb plic.o
                                        0x151 (size before relaxing)
 .debug_str     0x0000000000000664      0x111 syscall.o
                                        0x29b (size before relaxing)
 .debug_str     0x0000000000000775       0x32 tick.o
                                        0x159 (size before relaxing)

.debug_rnglists
                0x0000000000000000      0x12c
 .debug_rnglists
                0x0000000000000000       0x4e portASM.o
 .debug_rnglists
                0x000000000000004e       0xde main.o

.debug_loclists
                0x0000000000000000      0x55d
 .debug_loclists
                0x0000000000000000       0x5d delay.o
 .debug_loclists
                0x000000000000005d       0x60 dma.o
 .debug_loclists
                0x00000000000000bd      0x254 main.o
 .debug_loclists
                0x0000000000000311       0x4b plic.o
 .debug_loclists
                0x000000000000035c      0x201 syscall.o

.debug_frame    0x0000000000000000      0x318
 .debug_frame   0x0000000000000000       0x28 delay.o
 .debug_frame   0x0000000000000028       0x70 dma.o
 .debug_frame   0x0000000000000098       0xd8 main.o
 .debug_frame   0x0000000000000170       0x58 plic.o
 .debug_frame   0x00000000000001c8      0x110 syscall.o
 .debug_frame   0x00000000000002d8       0x40 tick.o
